; Function Attrs: mustprogress uwtable
define noundef zeroext i1 @_ZN3nix10LocalStore12isValidPath_ERNS0_5StateERKNS_9StorePathE(ptr noundef nonnull align 8 dereferenceable(504) %0, ptr nocapture noundef nonnull readonly align 8 dereferenceable(64) %1, ptr noundef nonnull align 8 dereferenceable(32) %2) local_unnamed_addr #5 align 2 personality ptr @__gxx_personality_v0 {
  %4 = alloca %"class.nix::SQLiteStmt::Use", align 8
  %5 = alloca %"class.std::__cxx11::basic_string", align 8
  %6 = getelementptr inbounds i8, ptr %1, i64 8
  %7 = load ptr, ptr %6, align 8
  %8 = getelementptr inbounds i8, ptr %7, i64 144
  call void @_ZN3nix10SQLiteStmt3UseC1ERS0_(ptr noundef nonnull align 8 dereferenceable(12) %4, ptr noundef nonnull align 8 dereferenceable(48) %8)
  %9 = load ptr, ptr %0, align 8
  %10 = getelementptr i8, ptr %9, i64 -32
  %11 = load i64, ptr %10, align 8
  %12 = getelementptr inbounds i8, ptr %0, i64 %11
  invoke void @_ZNK3nix14StoreDirConfig14printStorePathB5cxx11ERKNS_9StorePathE(ptr dead_on_unwind nonnull writable sret(%"class.std::__cxx11::basic_string") align 8 %5, ptr noundef nonnull align 8 dereferenceable(344) %12, ptr noundef nonnull align 8 dereferenceable(32) %2)
          to label %13 unwind label %26

13:                                               ; preds = %3
  %14 = load ptr, ptr %5, align 8
  %15 = getelementptr inbounds i8, ptr %5, i64 8
  %16 = load i64, ptr %15, align 8
  %17 = invoke noundef nonnull align 8 dereferenceable(12) ptr @_ZN3nix10SQLiteStmt3UseclESt17basic_string_viewIcSt11char_traitsIcEEb(ptr noundef nonnull align 8 dereferenceable(12) %4, i64 %16, ptr %14, i1 noundef zeroext true)
          to label %18 unwind label %28

18:                                               ; preds = %13
  %19 = invoke noundef zeroext i1 @_ZN3nix10SQLiteStmt3Use4nextEv(ptr noundef nonnull align 8 dereferenceable(12) %17)
          to label %20 unwind label %28

20:                                               ; preds = %18
  %21 = load ptr, ptr %5, align 8
  %22 = getelementptr inbounds i8, ptr %5, i64 16
  %23 = icmp eq ptr %21, %22
  br i1 %23, label %_ZNKSt7__cxx1112basic_stringIcSt11char_traitsIcESaIcEE11_M_is_localEv.exit.thread.i.i, label %_ZNKSt7__cxx1112basic_stringIcSt11char_traitsIcESaIcEE11_M_is_localEv.exit.i.i

_ZNKSt7__cxx1112basic_stringIcSt11char_traitsIcESaIcEE11_M_is_localEv.exit.thread.i.i: ; preds = %20
  %24 = load i64, ptr %15, align 8
  %25 = icmp ult i64 %24, 16
  call void @llvm.assume(i1 %25)
  br label %_ZNSt7__cxx1112basic_stringIcSt11char_traitsIcESaIcEED2Ev.exit

_ZNKSt7__cxx1112basic_stringIcSt11char_traitsIcESaIcEE11_M_is_localEv.exit.i.i: ; preds = %20
  call void @_ZdlPv(ptr noundef %21) #36
  br label %_ZNSt7__cxx1112basic_stringIcSt11char_traitsIcESaIcEED2Ev.exit

_ZNSt7__cxx1112basic_stringIcSt11char_traitsIcESaIcEED2Ev.exit: ; preds = %_ZNKSt7__cxx1112basic_stringIcSt11char_traitsIcESaIcEE11_M_is_localEv.exit.thread.i.i, %_ZNKSt7__cxx1112basic_stringIcSt11char_traitsIcESaIcEE11_M_is_localEv.exit.i.i
  call void @_ZNSaIcED2Ev(ptr noundef nonnull align 1 dereferenceable(1) %5) #33
  call void @_ZN3nix10SQLiteStmt3UseD1Ev(ptr noundef nonnull align 8 dereferenceable(12) %4) #33
  ret i1 %19

26:                                               ; preds = %3
  %27 = landingpad { ptr, i32 }
          cleanup
  br label %30

28:                                               ; preds = %18, %13
  %29 = landingpad { ptr, i32 }
          cleanup
  call void @_ZNSt7__cxx1112basic_stringIcSt11char_traitsIcESaIcEED2Ev(ptr noundef nonnull align 8 dereferenceable(32) %5) #33
  br label %30

30:                                               ; preds = %28, %26
  %.pn = phi { ptr, i32 } [ %29, %28 ], [ %27, %26 ]
  call void @_ZN3nix10SQLiteStmt3UseD1Ev(ptr noundef nonnull align 8 dereferenceable(12) %4) #33
  resume { ptr, i32 } %.pn
}